0x20001ef8 <_ZL12myCharBuffer>:	0x6a	0x6e	0x6a	0x6a	0x6a	0x6a	0x6a	0x68
0x20001f00 <_ZL12myCharBuffer+8>:	0x68	0x68	0x76	0x76	0x67	0x67	0x79	0x08
0x20001f08 <_ZL12myCharBuffer+16>:	0x08	0x08	0x08	0x08	0x08	0x08	0x08	0x08
0x20001f10 <_ZL12myCharBuffer+24>:	0x08	0x08	0x08	0x08	0x08	0x08	0x1b	0x5b
0x20001f18 <_ZL12myCharBuffer+32>:	0x4b	0x00	0x00	0x00	0x00	0x00	0x00	0x00
0x20001f20 <_ZL12myCharBuffer+40>:	0x00	0x00	0x00	0x00	0x00	0x00	0x00	0x00
0x20001f28 <_ZL12myCharBuffer+48>:	0x00	0x00	0x00	0x00	0x6a	0x6e	0x6a	0x6a
0x20001f30 <_ZL12myCharBuffer+56>:	0x6a	0x6a	0x6a	0x68	0x68	0x68	0x76	0x76
0x20001f38 <_ZL12myCharBuffer+64>:	0x67	0x67	0x79	0x08	0x08	0x08	0x08	0x08
0x20001f40 <_ZL12myCharBuffer+72>:	0x08	0x08	0x08	0x08	0x08	0x08	0x08	0x08
0x20001f48 <_ZL12myCharBuffer+80>:	0x08	0x08	0x1b	0x5b	0x50	0x1b	0x5b	0x50
0x20001f50 <_ZL12myCharBuffer+88>:	0x1b	0x5b	0x50	0x1b	0x5b	0x50	0x1b	0x5b
0x20001f58 <_ZL12myCharBuffer+96>:	0x50	0x1b	0x5b	0x50	0x1b	0x5b	0x50	0x1b
0x20001f60 <_ZL12myCharBuffer+104>:	0x5b	0x50	0x1b	0x5b	0x50	0x1b	0x5b	0x50
0x20001f68 <_ZL12myCharBuffer+112>:	0x69	0x76	0x68	0x63	0x68	0x08	0x08	0x08
0x20001f70 <_ZL12myCharBuffer+120>:	0x08	0x08	0x6a	0x6e	0x6a	0x6a	0x6a	0x6a
0x20001f78 <_ZL12myCharBuffer+128>:	0x6a	0x68	0x68	0x68	0x76	0x76	0x67	0x67
0x20001f80 <_ZL12myCharBuffer+136>:	0x79	0x08	0x08	0x08	0x08	0x08	0x08	0x08
0x20001f88 <_ZL12myCharBuffer+144>:	0x08	0x08	0x08	0x08	0x08	0x08	0x08	0x08
0x20001f90 <_ZL12myCharBuffer+152>:	0x1b	0x5b	0x50	0x1b	0x5b	0x50	0x1b	0x5b
0x20001f98 <_ZL12myCharBuffer+160>:	0x50	0x1b	0x5b	0x50	0x1b	0x5b	0x50	0x1b
0x20001fa0 <_ZL12myCharBuffer+168>:	0x5b	0x50	0x1b	0x5b	0x50	0x1b	0x5b	0x50
0x20001fa8 <_ZL12myCharBuffer+176>:	0x1b	0x5b	0x50	0x1b	0x5b	0x50	0x69	0x76
0x20001fb0 <_ZL12myCharBuffer+184>:	0x68	0x63	0x68	0x08	0x08	0x08	0x08	0x08
0x20001fb8 <_ZL12myCharBuffer+192>:	0x6a	0x6e	0x6a	0x6a	0x6a	0x6a	0x6a	0x68
0x20001fc0 <_ZL12myCharBuffer+200>:	0x68	0x68	0x76	0x76	0x67	0x67	0x79	0x08
0x20001fc8 <_ZL12myCharBuffer+208>:	0x08	0x08	0x08	0x08	0x08	0x08	0x08	0x08
0x20001fd0 <_ZL12myCharBuffer+216>:	0x08	0x08	0x08	0x08	0x08	0x08	0x1b	0x5b
0x20001fd8 <_ZL12myCharBuffer+224>:	0x50	0x1b	0x5b	0x50	0x1b	0x5b	0x50	0x1b
0x20001fe0 <_ZL12myCharBuffer+232>:	0x5b	0x50	0x1b	0x5b	0x50	0x1b	0x5b	0x50
0x20001fe8 <_ZL12myCharBuffer+240>:	0x1b	0x5b	0x50	0x1b	0x5b	0x50	0x1b	0x5b
0x20001ff0 <_ZL12myCharBuffer+248>:	0x50	0x1b	0x5b	0x50	0x69	0x76	0x68	0x63
0x20001ff8 <_ZL12myCharBuffer+256>:	0x68	0x08	0x08	0x08	0x08	0x08	0x6a	0x6e
0x20002000 <_ZL12myCharBuffer+264>:	0x6a	0x6a	0x6a	0x6a	0x6a	0x68	0x68	0x68
0x20002008 <_ZL12myCharBuffer+272>:	0x76	0x76	0x67	0x67	0x79	0x08	0x08	0x08
0x20002010 <_ZL12myCharBuffer+280>:	0x08	0x08	0x08	0x08	0x08	0x08	0x08	0x08
0x20002018 <_ZL12myCharBuffer+288>:	0x08	0x08	0x08	0x08	0x1b	0x5b	0x50	0x1b
0x20002020 <_ZL12myCharBuffer+296>:	0x5b	0x50	0x1b	0x5b	0x50	0x1b	0x5b	0x50
0x20002028 <_ZL12myCharBuffer+304>:	0x1b	0x5b	0x50	0x1b	0x5b	0x50	0x00	0x00
0x20002030 <_ZL12myCharBuffer+312>:	0x00	0x00	0x00	0x00	0x00	0x00	0x00	0x00
0x20002038 <_ZL12myCharBuffer+320>:	0x00	0x00	0x00	0x00	0x00	0x00	0x00	0x00
0x20002040 <_ZL12myCharBuffer+328>:	0x00	0x00	0x00	0x00	0x00	0x00	0x00	0x00
0x20002048 <_ZL12myCharBuffer+336>:	0x00	0x00	0x00	0x00	0x00	0x00	0x00	0x00
0x20002050 <_ZL12myCharBuffer+344>:	0x00	0x00	0x00	0x00	0x00	0x00	0x00	0x00
0x20002058 <_ZL12myCharBuffer+352>:	0x00	0x00	0x00	0x00	0x00	0x00	0x00	0x00
0x20002060 <_ZL12myCharBuffer+360>:	0x00	0x00	0x00	0x00	0x00	0x00	0x00	0x00
0x20002068 <_ZL12myCharBuffer+368>:	0x00	0x00	0x00	0x00	0x00	0x00	0x00	0x00
0x20002070 <_ZL12myCharBuffer+376>:	0x00	0x00	0x00	0x00	0x00	0x00	0x00	0x00
0x20002078 <_ZL12myCharBuffer+384>:	0x00	0x00	0x00	0x00	0x00	0x00	0x00	0x00
0x20002080 <_ZL12myCharBuffer+392>:	0x00	0x00	0x00	0x00	0x00	0x00	0x00	0x00